; Function Attrs: mustprogress uwtable
define void @_ZN6icu_7713CalendarCache3putEPPS0_iiR10UErrorCode(ptr noundef captures(none) %0, i32 noundef %1, i32 noundef %2, ptr noundef nonnull align 4 dereferenceable(4) %3) local_unnamed_addr #0 align 2 personality ptr @__gxx_personality_v0 {
  %5 = load i32, ptr %3, align 4, !tbaa !27
  %6 = icmp slt i32 %5, 1
  br i1 %6, label %7, label %27

7:                                                ; preds = %4
  tail call void @umtx_lock_77(ptr noundef nonnull @_ZL6ccLock)
  %8 = load ptr, ptr %0, align 8, !tbaa !29
  %9 = icmp eq ptr %8, null
  br i1 %9, label %10, label %_ZN6icu_7713CalendarCache11createCacheEPPS0_R10UErrorCode.exit.thread

10:                                               ; preds = %7
  tail call void @ucln_i18n_registerCleanup_77(i32 noundef 11, ptr noundef nonnull @_ZL22calendar_astro_cleanupv)
  %11 = tail call noundef ptr @_ZN6icu_777UMemorynwEm(i64 noundef 16) #16
  %12 = icmp eq ptr %11, null
  br i1 %12, label %.thread.i, label %13

13:                                               ; preds = %10
  invoke void @_ZN6icu_7713CalendarCacheC1EiR10UErrorCode(ptr noundef nonnull align 8 dereferenceable(16) %11, i32 noundef 32, ptr noundef nonnull align 4 dereferenceable(4) %3)
          to label %14 unwind label %18

14:                                               ; preds = %13
  store ptr %11, ptr %0, align 8, !tbaa !29
  %15 = load i32, ptr %3, align 4, !tbaa !27
  %16 = icmp slt i32 %15, 1
  br i1 %16, label %_ZN6icu_7713CalendarCache11createCacheEPPS0_R10UErrorCode.exit.thread, label %_ZN6icu_7713CalendarCache11createCacheEPPS0_R10UErrorCode.exit

.thread.i:                                        ; preds = %10
  store ptr null, ptr %0, align 8, !tbaa !29
  %17 = load i32, ptr %3, align 4, !tbaa !27
  br label %_ZN6icu_7713CalendarCache11createCacheEPPS0_R10UErrorCode.exit.thread10

18:                                               ; preds = %13
  %19 = landingpad { ptr, i32 }
          cleanup
  tail call void @_ZN6icu_777UMemorydlEPv(ptr noundef nonnull %11) #16
  resume { ptr, i32 } %19

_ZN6icu_7713CalendarCache11createCacheEPPS0_R10UErrorCode.exit: ; preds = %14
  %20 = load ptr, ptr %11, align 8, !tbaa !21
  %21 = getelementptr inbounds nuw i8, ptr %20, i64 8
  %22 = load ptr, ptr %21, align 8
  tail call void %22(ptr noundef nonnull align 8 dereferenceable(16) %11) #16
  %.pre.pre = load i32, ptr %3, align 4, !tbaa !27
  store ptr null, ptr %0, align 8, !tbaa !29
  br label %_ZN6icu_7713CalendarCache11createCacheEPPS0_R10UErrorCode.exit.thread10

_ZN6icu_7713CalendarCache11createCacheEPPS0_R10UErrorCode.exit.thread10: ; preds = %.thread.i, %_ZN6icu_7713CalendarCache11createCacheEPPS0_R10UErrorCode.exit
  %.sink12.in = phi i32 [ %17, %.thread.i ], [ %.pre.pre, %_ZN6icu_7713CalendarCache11createCacheEPPS0_R10UErrorCode.exit ]
  %.sink12 = icmp sgt i32 %.sink12.in, 0
  tail call void @llvm.assume(i1 %.sink12)
  br label %.sink.split

_ZN6icu_7713CalendarCache11createCacheEPPS0_R10UErrorCode.exit.thread: ; preds = %14, %7
  %23 = phi ptr [ %8, %7 ], [ %11, %14 ]
  %24 = getelementptr inbounds nuw i8, ptr %23, i64 8
  %25 = load ptr, ptr %24, align 8, !tbaa !32
  %26 = tail call i32 @uhash_iputi_77(ptr noundef %25, i32 noundef %1, i32 noundef %2, ptr noundef nonnull %3)
  br label %.sink.split

.sink.split:                                      ; preds = %_ZN6icu_7713CalendarCache11createCacheEPPS0_R10UErrorCode.exit.thread10, %_ZN6icu_7713CalendarCache11createCacheEPPS0_R10UErrorCode.exit.thread
  tail call void @umtx_unlock_77(ptr noundef nonnull @_ZL6ccLock)
  br label %27

27:                                               ; preds = %.sink.split, %4
  ret void
}